ccopy_reg
_reconstructor
p0
(csimulator.racing_car
RacingCar
p1
c__builtin__
object
p2
Ntp3
Rp4
(dp5
S'acce'
p6
I0
sS'toward'
p7
(lp8
I0
aI0
asS'speed'
p9
I0
sS'pos'
p10
(lp11
I0
aI0
asS'param'
p12
(dp13
S'power'
p14
F10.2
sS'weight'
p15
F13.2
sS'torque'
p16
F16.8
sS'width'
p17
F2.03
sS'length'
p18
F1.08
sS'fcoff'
p19
F15.3
sS'dis'
p20
F3.3
ssb.